; Function Attrs: nounwind sspstrong uwtable
define internal void @machine_get_boot(ptr noundef %obj, ptr noundef %v, ptr noundef %name, ptr readnone captures(none) %opaque, ptr readnone captures(none) %errp) #0 {
entry:
  %config = alloca ptr, align 8
  %call.i = tail call ptr @object_dynamic_cast_assert(ptr noundef %obj, ptr noundef nonnull @.str.225, ptr noundef nonnull @.str.226, i32 noundef 23, ptr noundef nonnull @__func__.MACHINE) #16
  %boot_config = getelementptr inbounds nuw i8, ptr %call.i, i64 168
  store ptr %boot_config, ptr %config, align 8
  %call1 = call zeroext i1 @visit_type_BootConfiguration(ptr noundef %v, ptr noundef %name, ptr noundef nonnull %config, ptr noundef nonnull @error_abort) #16
  ret void
}